; Function Attrs: mustprogress null_pointer_is_valid sspstrong uwtable
define void @_ZN16ImportTextDialog26on_ppiLineEdit_textChangedERK7QString(ptr noundef align 8 captures(address_is_null) dereferenceable_or_null(305) %0, ptr noundef readonly align 8 captures(none) dereferenceable(24) %1) local_unnamed_addr #2 align 2 {
  %3 = getelementptr inbounds nuw i8, ptr %0, i64 40
  %4 = load ptr, ptr %3, align 8
  %5 = getelementptr inbounds nuw i8, ptr %4, i64 672
  %6 = load ptr, ptr %5, align 8
  %7 = getelementptr inbounds nuw i8, ptr %0, i64 302
  %8 = getelementptr inbounds nuw i8, ptr %0, i64 236
  tail call void @_ZN16ImportTextDialog15check_line_editEP14SyntaxLineEditRbRK7QStringijbPj(ptr noundef align 8 dereferenceable_or_null(305) %0, ptr noundef %6, ptr noundef nonnull align 1 dereferenceable(1) %7, ptr noundef align 8 dereferenceable(24) %1, i32 noundef 10, i32 noundef -1, i1 noundef zeroext false, ptr noundef nonnull %8)
  ret void
}